target datalayout = "e-m:e-p270:32:32-p271:32:32-p272:64:64-i64:64-i128:128-f80:128-n8:16:32:64-S128"
target triple = "x86_64-pc-linux-gnu"

%struct.t_filenm = type { i32, ptr, ptr, i64, %"class.std::vector" }
%"class.std::vector" = type { %"struct.std::_Vector_base" }
%"struct.std::_Vector_base" = type { %"struct.std::_Vector_base<std::__cxx11::basic_string<char>, std::allocator<std::__cxx11::basic_string<char>>>::_Vector_impl" }
%"struct.std::_Vector_base<std::__cxx11::basic_string<char>, std::allocator<std::__cxx11::basic_string<char>>>::_Vector_impl" = type { %"struct.std::_Vector_base<std::__cxx11::basic_string<char>, std::allocator<std::__cxx11::basic_string<char>>>::_Vector_impl_data" }
%"struct.std::_Vector_base<std::__cxx11::basic_string<char>, std::allocator<std::__cxx11::basic_string<char>>>::_Vector_impl_data" = type { ptr, ptr, ptr }
%class.anon.3 = type { i8 }
%"class.std::__cxx11::basic_string" = type { %"struct.std::__cxx11::basic_string<char>::_Alloc_hider", i64, %union.anon }
%"struct.std::__cxx11::basic_string<char>::_Alloc_hider" = type { ptr }
%union.anon = type { i64, [8 x i8] }
%class.anon.15 = type { i8 }

@.str = private unnamed_addr constant [18 x i8] c"nfile == 0 || fnm\00", align 1
@.str.1 = private unnamed_addr constant [31 x i8] c"need a valid list of filenames\00", align 1
@"__PRETTY_FUNCTION__._ZZL13getFileOptionPKciPK8t_filenmENK3$_0clEv" = private unnamed_addr constant [95 x i8] c"auto getFileOption(const char *, int, const t_filenm *)::(anonymous class)::operator()() const\00", align 1
@.str.2 = private unnamed_addr constant [128 x i8] c"generated/home/dtcxzyw/WorkSpace/Projects/compilers/llvm-opt-benchmark/bench/gromacs/gromacs/src/gromacs/commandline/filenm.cpp\00", align 1
@.str.3 = private unnamed_addr constant [6 x i8] c"false\00", align 1
@.str.10 = private unnamed_addr constant [49 x i8] c"opt2fn_null should be called with a valid option\00", align 1
@"__PRETTY_FUNCTION__._ZZ11opt2fn_nullPKciPK8t_filenmENK3$_0clEv" = private unnamed_addr constant [93 x i8] c"auto opt2fn_null(const char *, int, const t_filenm *)::(anonymous class)::operator()() const\00", align 1

; Function Attrs: mustprogress uwtable
define internal void @"_ZZL13getFileOptionPKciPK8t_filenmENK3$_0clEv"(ptr noundef nonnull align 1 dereferenceable(1) %0) #0 align 2 {
  %2 = alloca ptr, align 8
  store ptr %0, ptr %2, align 8
  call void @_ZN3gmx8internal13assertHandlerEPKcS2_S2_S2_i(ptr noundef @.str, ptr noundef @.str.1, ptr noundef @"__PRETTY_FUNCTION__._ZZL13getFileOptionPKciPK8t_filenmENK3$_0clEv", ptr noundef @.str.2, i32 noundef 66) #10
  unreachable
}

; Function Attrs: mustprogress uwtable
define internal void @"_ZZ11opt2fn_nullPKciPK8t_filenmENK3$_0clEv"(ptr noundef nonnull align 1 dereferenceable(1) %0) #0 align 2 {
  %2 = alloca ptr, align 8
  store ptr %0, ptr %2, align 8
  call void @_ZN3gmx8internal13assertHandlerEPKcS2_S2_S2_i(ptr noundef @.str.3, ptr noundef @.str.10, ptr noundef @"__PRETTY_FUNCTION__._ZZ11opt2fn_nullPKciPK8t_filenmENK3$_0clEv", ptr noundef @.str.2, i32 noundef 199) #10
  unreachable
}

; Function Attrs: mustprogress nounwind uwtable
define linkonce_odr noundef nonnull align 8 dereferenceable(32) ptr @_ZNKSt6vectorINSt7__cxx1112basic_stringIcSt11char_traitsIcESaIcEEESaIS5_EEixEm(ptr noundef nonnull align 8 dereferenceable(24) %0, i64 noundef %1) #1 comdat align 2 {
  %3 = alloca ptr, align 8
  %4 = alloca i64, align 8
  store ptr %0, ptr %3, align 8
  store i64 %1, ptr %4, align 8
  %5 = load ptr, ptr %3, align 8
  %6 = getelementptr inbounds %"struct.std::_Vector_base", ptr %5, i32 0, i32 0
  %7 = getelementptr inbounds %"struct.std::_Vector_base<std::__cxx11::basic_string<char>, std::allocator<std::__cxx11::basic_string<char>>>::_Vector_impl_data", ptr %6, i32 0, i32 0
  %8 = load ptr, ptr %7, align 8
  %9 = load i64, ptr %4, align 8
  %10 = getelementptr inbounds %"class.std::__cxx11::basic_string", ptr %8, i64 %9
  ret ptr %10
}

; Function Attrs: mustprogress nounwind uwtable
define internal noundef zeroext i1 @_ZL6IS_SETRK8t_filenm(ptr noundef nonnull align 8 dereferenceable(56) %0) #1 {
  %2 = alloca ptr, align 8
  store ptr %0, ptr %2, align 8
  %3 = load ptr, ptr %2, align 8
  %4 = getelementptr inbounds %struct.t_filenm, ptr %3, i32 0, i32 3
  %5 = load i64, ptr %4, align 8
  %6 = and i64 %5, 1
  %7 = icmp ne i64 %6, 0
  ret i1 %7
}

; Function Attrs: mustprogress nounwind uwtable
define internal noundef zeroext i1 @_ZL6IS_OPTRK8t_filenm(ptr noundef nonnull align 8 dereferenceable(56) %0) #1 {
  %2 = alloca ptr, align 8
  store ptr %0, ptr %2, align 8
  %3 = load ptr, ptr %2, align 8
  %4 = getelementptr inbounds %struct.t_filenm, ptr %3, i32 0, i32 3
  %5 = load i64, ptr %4, align 8
  %6 = and i64 %5, 8
  %7 = icmp ne i64 %6, 0
  ret i1 %7
}

; Function Attrs: mustprogress uwtable
define internal noundef ptr @_ZL13getFileOptionPKciPK8t_filenm(ptr noundef %0, i32 noundef %1, ptr noundef %2) #0 {
  %4 = alloca ptr, align 8
  %5 = alloca ptr, align 8
  %6 = alloca i32, align 4
  %7 = alloca ptr, align 8
  %8 = alloca %class.anon.3, align 1
  %9 = alloca i32, align 4
  store ptr %0, ptr %5, align 8
  store i32 %1, ptr %6, align 4
  store ptr %2, ptr %7, align 8
  %10 = load i32, ptr %6, align 4
  %11 = icmp eq i32 %10, 0
  br i1 %11, label %15, label %12

12:                                               ; preds = %3
  %13 = load ptr, ptr %7, align 8
  %14 = icmp ne ptr %13, null
  br i1 %14, label %15, label %16

15:                                               ; preds = %12, %3
  br label %17

16:                                               ; preds = %12
  call void @"_ZZL13getFileOptionPKciPK8t_filenmENK3$_0clEv"(ptr noundef nonnull align 1 dereferenceable(1) %8)
  br label %17

17:                                               ; preds = %16, %15
  store i32 0, ptr %9, align 4
  br label %18

18:                                               ; preds = %65, %17
  %19 = load i32, ptr %9, align 4
  %20 = load i32, ptr %6, align 4
  %21 = icmp slt i32 %19, %20
  br i1 %21, label %22, label %68

22:                                               ; preds = %18
  %23 = load ptr, ptr %7, align 8
  %24 = load i32, ptr %9, align 4
  %25 = sext i32 %24 to i64
  %26 = getelementptr inbounds %struct.t_filenm, ptr %23, i64 %25
  %27 = getelementptr inbounds %struct.t_filenm, ptr %26, i32 0, i32 1
  %28 = load ptr, ptr %27, align 8
  %29 = icmp ne ptr %28, null
  br i1 %29, label %30, label %40

30:                                               ; preds = %22
  %31 = load ptr, ptr %5, align 8
  %32 = load ptr, ptr %7, align 8
  %33 = load i32, ptr %9, align 4
  %34 = sext i32 %33 to i64
  %35 = getelementptr inbounds %struct.t_filenm, ptr %32, i64 %34
  %36 = getelementptr inbounds %struct.t_filenm, ptr %35, i32 0, i32 1
  %37 = load ptr, ptr %36, align 8
  %38 = call i32 @strcmp(ptr noundef %31, ptr noundef %37) #9
  %39 = icmp eq i32 %38, 0
  br i1 %39, label %59, label %40

40:                                               ; preds = %30, %22
  %41 = load ptr, ptr %7, align 8
  %42 = load i32, ptr %9, align 4
  %43 = sext i32 %42 to i64
  %44 = getelementptr inbounds %struct.t_filenm, ptr %41, i64 %43
  %45 = getelementptr inbounds %struct.t_filenm, ptr %44, i32 0, i32 1
  %46 = load ptr, ptr %45, align 8
  %47 = icmp eq ptr %46, null
  br i1 %47, label %48, label %64

48:                                               ; preds = %40
  %49 = load ptr, ptr %5, align 8
  %50 = load ptr, ptr %7, align 8
  %51 = load i32, ptr %9, align 4
  %52 = sext i32 %51 to i64
  %53 = getelementptr inbounds %struct.t_filenm, ptr %50, i64 %52
  %54 = getelementptr inbounds %struct.t_filenm, ptr %53, i32 0, i32 0
  %55 = load i32, ptr %54, align 8
  %56 = call noundef ptr @_Z10ftp2defopti(i32 noundef %55)
  %57 = call i32 @strcmp(ptr noundef %49, ptr noundef %56) #9
  %58 = icmp eq i32 %57, 0
  br i1 %58, label %59, label %64

59:                                               ; preds = %48, %30
  %60 = load ptr, ptr %7, align 8
  %61 = load i32, ptr %9, align 4
  %62 = sext i32 %61 to i64
  %63 = getelementptr inbounds %struct.t_filenm, ptr %60, i64 %62
  store ptr %63, ptr %4, align 8
  br label %69

64:                                               ; preds = %48, %40
  br label %65

65:                                               ; preds = %64
  %66 = load i32, ptr %9, align 4
  %67 = add nsw i32 %66, 1
  store i32 %67, ptr %9, align 4
  br label %18, !llvm.loop !5

68:                                               ; preds = %18
  store ptr null, ptr %4, align 8
  br label %69

69:                                               ; preds = %68, %59
  %70 = load ptr, ptr %4, align 8
  ret ptr %70
}

; Function Attrs: mustprogress uwtable
define noundef ptr @_Z11opt2fn_nullPKciPK8t_filenm(ptr noundef %0, i32 noundef %1, ptr noundef %2) #0 {
  %4 = alloca ptr, align 8
  %5 = alloca ptr, align 8
  %6 = alloca i32, align 4
  %7 = alloca ptr, align 8
  %8 = alloca ptr, align 8
  %9 = alloca %class.anon.15, align 1
  store ptr %0, ptr %5, align 8
  store i32 %1, ptr %6, align 4
  store ptr %2, ptr %7, align 8
  %10 = load ptr, ptr %5, align 8
  %11 = load i32, ptr %6, align 4
  %12 = load ptr, ptr %7, align 8
  %13 = call noundef ptr @_ZL13getFileOptionPKciPK8t_filenm(ptr noundef %10, i32 noundef %11, ptr noundef %12)
  store ptr %13, ptr %8, align 8
  %14 = load ptr, ptr %8, align 8
  %15 = icmp ne ptr %14, null
  br i1 %15, label %16, label %28

16:                                               ; preds = %3
  %17 = load ptr, ptr %8, align 8
  %18 = call noundef zeroext i1 @_ZL6IS_OPTRK8t_filenm(ptr noundef nonnull align 8 dereferenceable(56) %17)
  br i1 %18, label %19, label %23

19:                                               ; preds = %16
  %20 = load ptr, ptr %8, align 8
  %21 = call noundef zeroext i1 @_ZL6IS_SETRK8t_filenm(ptr noundef nonnull align 8 dereferenceable(56) %20)
  br i1 %21, label %23, label %22

22:                                               ; preds = %19
  store ptr null, ptr %4, align 8
  br label %29

23:                                               ; preds = %19, %16
  %24 = load ptr, ptr %8, align 8
  %25 = getelementptr inbounds %struct.t_filenm, ptr %24, i32 0, i32 4
  %26 = call noundef nonnull align 8 dereferenceable(32) ptr @_ZNKSt6vectorINSt7__cxx1112basic_stringIcSt11char_traitsIcESaIcEEESaIS5_EEixEm(ptr noundef nonnull align 8 dereferenceable(24) %25, i64 noundef 0) #8
  %27 = call noundef ptr @_ZNKSt7__cxx1112basic_stringIcSt11char_traitsIcESaIcEE5c_strEv(ptr noundef nonnull align 8 dereferenceable(32) %26) #8
  store ptr %27, ptr %4, align 8
  br label %29

28:                                               ; preds = %3
  call void @"_ZZ11opt2fn_nullPKciPK8t_filenmENK3$_0clEv"(ptr noundef nonnull align 1 dereferenceable(1) %9)
  store ptr null, ptr %4, align 8
  br label %29

29:                                               ; preds = %28, %23, %22
  %30 = load ptr, ptr %4, align 8
  ret ptr %30
}