; Function Attrs: mustprogress uwtable
define noundef ptr @_Z11opt2fn_nullPKciPK8t_filenm(ptr nocapture noundef readonly %0, i32 noundef %1, ptr noundef readonly %2) local_unnamed_addr #0 {
  %4 = icmp eq i32 %1, 0
  %5 = icmp ne ptr %2, null
  %or.cond.i = or i1 %4, %5
  br i1 %or.cond.i, label %.preheader.i, label %7

.preheader.i:                                     ; preds = %3
  %6 = icmp sgt i32 %1, 0
  br i1 %6, label %.lr.ph.preheader.i, label %.loopexit

.lr.ph.preheader.i:                               ; preds = %.preheader.i
  %wide.trip.count.i = zext nneg i32 %1 to i64
  br label %.lr.ph.i

7:                                                ; preds = %3
  tail call void @_ZN3gmx8internal13assertHandlerEPKcS2_S2_S2_i(ptr noundef nonnull @.str, ptr noundef nonnull @.str.1, ptr noundef nonnull @"__PRETTY_FUNCTION__._ZZL13getFileOptionPKciPK8t_filenmENK3$_0clEv", ptr noundef nonnull @.str.2, i32 noundef 66) #11
  unreachable

.lr.ph.i:                                         ; preds = %19, %.lr.ph.preheader.i
  %indvars.iv.i = phi i64 [ 0, %.lr.ph.preheader.i ], [ %indvars.iv.next.i, %19 ]
  %8 = getelementptr inbounds %struct.t_filenm, ptr %2, i64 %indvars.iv.i
  %9 = getelementptr inbounds i8, ptr %8, i64 8
  %10 = load ptr, ptr %9, align 8
  %.not.i = icmp eq ptr %10, null
  br i1 %.not.i, label %14, label %11

11:                                               ; preds = %.lr.ph.i
  %12 = tail call i32 @strcmp(ptr noundef nonnull dereferenceable(1) %0, ptr noundef nonnull dereferenceable(1) %10) #12
  %13 = icmp eq i32 %12, 0
  br i1 %13, label %_ZL13getFileOptionPKciPK8t_filenm.exit, label %19

14:                                               ; preds = %.lr.ph.i
  %15 = load i32, ptr %8, align 8
  %16 = tail call noundef ptr @_Z10ftp2defopti(i32 noundef %15)
  %17 = tail call i32 @strcmp(ptr noundef nonnull dereferenceable(1) %0, ptr noundef nonnull dereferenceable(1) %16) #12
  %18 = icmp eq i32 %17, 0
  br i1 %18, label %_ZL13getFileOptionPKciPK8t_filenm.exit, label %19

19:                                               ; preds = %14, %11
  %indvars.iv.next.i = add nuw nsw i64 %indvars.iv.i, 1
  %exitcond.not.i = icmp eq i64 %indvars.iv.next.i, %wide.trip.count.i
  br i1 %exitcond.not.i, label %.loopexit, label %.lr.ph.i, !llvm.loop !5

_ZL13getFileOptionPKciPK8t_filenm.exit:           ; preds = %14, %11
  %20 = getelementptr i8, ptr %8, i64 24
  %.val8 = load i64, ptr %20, align 8
  %21 = and i64 %.val8, 9
  %or.cond.not = icmp eq i64 %21, 8
  br i1 %or.cond.not, label %26, label %22

22:                                               ; preds = %_ZL13getFileOptionPKciPK8t_filenm.exit
  %23 = getelementptr inbounds i8, ptr %8, i64 32
  %24 = load ptr, ptr %23, align 8
  %25 = tail call noundef ptr @_ZNKSt7__cxx1112basic_stringIcSt11char_traitsIcESaIcEE5c_strEv(ptr noundef nonnull align 8 dereferenceable(32) %24) #13
  br label %26

.loopexit:                                        ; preds = %19, %.preheader.i
  tail call void @_ZN3gmx8internal13assertHandlerEPKcS2_S2_S2_i(ptr noundef nonnull @.str.3, ptr noundef nonnull @.str.10, ptr noundef nonnull @"__PRETTY_FUNCTION__._ZZ11opt2fn_nullPKciPK8t_filenmENK3$_0clEv", ptr noundef nonnull @.str.2, i32 noundef 199) #11
  unreachable

26:                                               ; preds = %_ZL13getFileOptionPKciPK8t_filenm.exit, %22
  %.0 = phi ptr [ %25, %22 ], [ null, %_ZL13getFileOptionPKciPK8t_filenm.exit ]
  ret ptr %.0
}